; Function Attrs: mustprogress uwtable
define hidden void @_ZN4cvc58internal6theory5arith15ArithPreprocessC2ERNS0_3EnvERNS2_16InferenceManagerERNS2_12OperatorElimE(ptr noundef nonnull align 8 dereferenceable(144) %0, ptr noundef nonnull align 1 %1, ptr noundef nonnull align 8 dereferenceable(432) %2, ptr noundef nonnull align 8 dereferenceable(184) %3) unnamed_addr #3 align 2 personality ptr @__gxx_personality_v0 {
  tail call void @_ZN4cvc58internal6EnvObjC2ERNS0_3EnvE(ptr noundef nonnull align 8 dereferenceable(16) %0, ptr noundef nonnull align 1 %1)
  store ptr getelementptr inbounds nuw inrange(-16, 16) (i8, ptr @_ZTVN4cvc58internal6theory5arith15ArithPreprocessE, i64 16), ptr %0, align 8, !tbaa !3
  %5 = getelementptr inbounds nuw i8, ptr %0, i64 16
  store ptr %2, ptr %5, align 8, !tbaa !6
  %6 = getelementptr inbounds nuw i8, ptr %0, i64 24
  store ptr %3, ptr %6, align 8, !tbaa !10
  %7 = tail call noundef ptr @_ZNK4cvc58internal6EnvObj11userContextEv(ptr noundef nonnull align 8 dereferenceable(16) %0)
  %8 = getelementptr inbounds nuw i8, ptr %0, i64 32
  tail call void @_ZN4cvc57context10ContextObjC2EPNS0_7ContextE(ptr noundef nonnull align 8 dereferenceable(112) %8, ptr noundef %7)
  store ptr getelementptr inbounds nuw inrange(-16, 32) (i8, ptr @_ZTVN4cvc57context9CDHashMapINS_8internal12NodeTemplateILb1EEEbSt4hashIS4_EEE, i64 16), ptr %8, align 8, !tbaa !3
  %9 = getelementptr inbounds nuw i8, ptr %0, i64 72
  %10 = getelementptr inbounds nuw i8, ptr %0, i64 104
  store i64 0, ptr %10, align 8
  %11 = getelementptr inbounds nuw i8, ptr %0, i64 120
  store ptr %11, ptr %9, align 8, !tbaa !12
  %12 = getelementptr inbounds nuw i8, ptr %0, i64 80
  store i64 1, ptr %12, align 8, !tbaa !20
  %13 = getelementptr inbounds nuw i8, ptr %0, i64 88
  tail call void @llvm.memset.p0.i64(ptr noundef nonnull align 8 dereferenceable(16) %13, i8 0, i64 16, i1 false)
  store float 1.000000e+00, ptr %10, align 8, !tbaa !21
  %14 = getelementptr inbounds nuw i8, ptr %0, i64 112
  %15 = getelementptr inbounds nuw i8, ptr %0, i64 136
  tail call void @llvm.memset.p0.i64(ptr noundef nonnull align 8 dereferenceable(24) %14, i8 0, i64 24, i1 false)
  store ptr %7, ptr %15, align 8, !tbaa !22
  ret void
}